target datalayout = "e-m:e-p270:32:32-p271:32:32-p272:64:64-i64:64-i128:128-f80:128-n8:16:32:64-S128"
target triple = "x86_64-pc-linux-gnu"

%struct.AVComponentDescriptor = type { i32, i32, i32, i32, i32 }
%struct.AVPixFmtDescriptor = type { ptr, i8, i8, i8, i64, [4 x %struct.AVComponentDescriptor], ptr }

; Function Attrs: nounwind uwtable
define i32 @av_get_padded_bits_per_pixel(ptr noundef %0) #0 {
  %2 = alloca ptr, align 8
  %3 = alloca i32, align 4
  %4 = alloca i32, align 4
  %5 = alloca i32, align 4
  %6 = alloca [4 x i32], align 16
  %7 = alloca ptr, align 8
  %8 = alloca i32, align 4
  store ptr %0, ptr %2, align 8, !tbaa !13
  call void @llvm.lifetime.start.p0(i64 4, ptr %3) #8
  call void @llvm.lifetime.start.p0(i64 4, ptr %4) #8
  store i32 0, ptr %4, align 4, !tbaa !15
  call void @llvm.lifetime.start.p0(i64 4, ptr %5) #8
  %9 = load ptr, ptr %2, align 8, !tbaa !13
  %10 = getelementptr inbounds nuw %struct.AVPixFmtDescriptor, ptr %9, i32 0, i32 2
  %11 = load i8, ptr %10, align 1, !tbaa !45
  %12 = zext i8 %11 to i32
  %13 = load ptr, ptr %2, align 8, !tbaa !13
  %14 = getelementptr inbounds nuw %struct.AVPixFmtDescriptor, ptr %13, i32 0, i32 3
  %15 = load i8, ptr %14, align 2, !tbaa !46
  %16 = zext i8 %15 to i32
  %17 = add nsw i32 %12, %16
  store i32 %17, ptr %5, align 4, !tbaa !15
  call void @llvm.lifetime.start.p0(i64 16, ptr %6) #8
  call void @llvm.memset.p0.i64(ptr align 16 %6, i8 0, i64 16, i1 false)
  store i32 0, ptr %3, align 4, !tbaa !15
  br label %18

18:                                               ; preds = %51, %1
  %19 = load i32, ptr %3, align 4, !tbaa !15
  %20 = load ptr, ptr %2, align 8, !tbaa !13
  %21 = getelementptr inbounds nuw %struct.AVPixFmtDescriptor, ptr %20, i32 0, i32 1
  %22 = load i8, ptr %21, align 8, !tbaa !47
  %23 = zext i8 %22 to i32
  %24 = icmp slt i32 %19, %23
  br i1 %24, label %25, label %54

25:                                               ; preds = %18
  call void @llvm.lifetime.start.p0(i64 8, ptr %7) #8
  %26 = load ptr, ptr %2, align 8, !tbaa !13
  %27 = getelementptr inbounds nuw %struct.AVPixFmtDescriptor, ptr %26, i32 0, i32 5
  %28 = load i32, ptr %3, align 4, !tbaa !15
  %29 = sext i32 %28 to i64
  %30 = getelementptr inbounds [4 x %struct.AVComponentDescriptor], ptr %27, i64 0, i64 %29
  store ptr %30, ptr %7, align 8, !tbaa !49
  call void @llvm.lifetime.start.p0(i64 4, ptr %8) #8
  %31 = load i32, ptr %3, align 4, !tbaa !15
  %32 = icmp eq i32 %31, 1
  br i1 %32, label %36, label %33

33:                                               ; preds = %25
  %34 = load i32, ptr %3, align 4, !tbaa !15
  %35 = icmp eq i32 %34, 2
  br i1 %35, label %36, label %37

36:                                               ; preds = %33, %25
  br label %39

37:                                               ; preds = %33
  %38 = load i32, ptr %5, align 4, !tbaa !15
  br label %39

39:                                               ; preds = %37, %36
  %40 = phi i32 [ 0, %36 ], [ %38, %37 ]
  store i32 %40, ptr %8, align 4, !tbaa !15
  %41 = load ptr, ptr %7, align 8, !tbaa !49
  %42 = getelementptr inbounds nuw %struct.AVComponentDescriptor, ptr %41, i32 0, i32 1
  %43 = load i32, ptr %42, align 4, !tbaa !22
  %44 = load i32, ptr %8, align 4, !tbaa !15
  %45 = shl i32 %43, %44
  %46 = load ptr, ptr %7, align 8, !tbaa !49
  %47 = getelementptr inbounds nuw %struct.AVComponentDescriptor, ptr %46, i32 0, i32 0
  %48 = load i32, ptr %47, align 4, !tbaa !18
  %49 = sext i32 %48 to i64
  %50 = getelementptr inbounds [4 x i32], ptr %6, i64 0, i64 %49
  store i32 %45, ptr %50, align 4, !tbaa !15
  call void @llvm.lifetime.end.p0(i64 4, ptr %8) #8
  call void @llvm.lifetime.end.p0(i64 8, ptr %7) #8
  br label %51

51:                                               ; preds = %39
  %52 = load i32, ptr %3, align 4, !tbaa !15
  %53 = add nsw i32 %52, 1
  store i32 %53, ptr %3, align 4, !tbaa !15
  br label %18, !llvm.loop !51

54:                                               ; preds = %18
  store i32 0, ptr %3, align 4, !tbaa !15
  br label %55

55:                                               ; preds = %65, %54
  %56 = load i32, ptr %3, align 4, !tbaa !15
  %57 = icmp slt i32 %56, 4
  br i1 %57, label %58, label %68

58:                                               ; preds = %55
  %59 = load i32, ptr %3, align 4, !tbaa !15
  %60 = sext i32 %59 to i64
  %61 = getelementptr inbounds [4 x i32], ptr %6, i64 0, i64 %60
  %62 = load i32, ptr %61, align 4, !tbaa !15
  %63 = load i32, ptr %4, align 4, !tbaa !15
  %64 = add nsw i32 %63, %62
  store i32 %64, ptr %4, align 4, !tbaa !15
  br label %65

65:                                               ; preds = %58
  %66 = load i32, ptr %3, align 4, !tbaa !15
  %67 = add nsw i32 %66, 1
  store i32 %67, ptr %3, align 4, !tbaa !15
  br label %55, !llvm.loop !52

68:                                               ; preds = %55
  %69 = load ptr, ptr %2, align 8, !tbaa !13
  %70 = getelementptr inbounds nuw %struct.AVPixFmtDescriptor, ptr %69, i32 0, i32 4
  %71 = load i64, ptr %70, align 8, !tbaa !23
  %72 = and i64 %71, 4
  %73 = icmp ne i64 %72, 0
  br i1 %73, label %77, label %74

74:                                               ; preds = %68
  %75 = load i32, ptr %4, align 4, !tbaa !15
  %76 = mul nsw i32 %75, 8
  store i32 %76, ptr %4, align 4, !tbaa !15
  br label %77

77:                                               ; preds = %74, %68
  %78 = load i32, ptr %4, align 4, !tbaa !15
  %79 = load i32, ptr %5, align 4, !tbaa !15
  %80 = ashr i32 %78, %79
  call void @llvm.lifetime.end.p0(i64 16, ptr %6) #8
  call void @llvm.lifetime.end.p0(i64 4, ptr %5) #8
  call void @llvm.lifetime.end.p0(i64 4, ptr %4) #8
  call void @llvm.lifetime.end.p0(i64 4, ptr %3) #8
  ret i32 %80
}