; Function Attrs: nofree norecurse nosync nounwind memory(argmem: read) uwtable
define i32 @av_get_padded_bits_per_pixel(ptr noundef readonly captures(none) %0) local_unnamed_addr #7 {
  %2 = alloca [4 x i32], align 16
  %3 = getelementptr inbounds nuw i8, ptr %0, i64 9
  %4 = load i8, ptr %3, align 1, !tbaa !28
  %5 = zext i8 %4 to i32
  %6 = getelementptr inbounds nuw i8, ptr %0, i64 10
  %7 = load i8, ptr %6, align 2, !tbaa !29
  %8 = zext i8 %7 to i32
  %9 = add nuw nsw i32 %8, %5
  call void @llvm.lifetime.start.p0(i64 16, ptr nonnull %2) #15
  call void @llvm.memset.p0.i64(ptr noundef nonnull align 16 dereferenceable(16) %2, i8 0, i64 16, i1 false)
  %10 = getelementptr inbounds nuw i8, ptr %0, i64 8
  %11 = load i8, ptr %10, align 8, !tbaa !30
  %.not26 = icmp eq i8 %11, 0
  br i1 %.not26, label %.preheader.preheader, label %.lr.ph

.lr.ph:                                           ; preds = %1
  %12 = getelementptr inbounds nuw i8, ptr %0, i64 24
  %wide.trip.count = zext i8 %11 to i64
  br label %13

13:                                               ; preds = %.lr.ph, %13
  %indvars.iv = phi i64 [ 0, %.lr.ph ], [ %indvars.iv.next, %13 ]
  %14 = getelementptr inbounds nuw [4 x %struct.AVComponentDescriptor], ptr %12, i64 0, i64 %indvars.iv
  %15 = trunc i64 %indvars.iv to i32
  %16 = add i32 %15, -1
  %or.cond = icmp ult i32 %16, 2
  %17 = select i1 %or.cond, i32 0, i32 %9
  %18 = getelementptr inbounds nuw i8, ptr %14, i64 4
  %19 = load i32, ptr %18, align 4, !tbaa !34
  %20 = shl i32 %19, %17
  %21 = load i32, ptr %14, align 4, !tbaa !35
  %22 = sext i32 %21 to i64
  %23 = getelementptr inbounds [4 x i32], ptr %2, i64 0, i64 %22
  store i32 %20, ptr %23, align 4, !tbaa !4
  %indvars.iv.next = add nuw nsw i64 %indvars.iv, 1
  %exitcond.not = icmp eq i64 %indvars.iv.next, %wide.trip.count
  br i1 %exitcond.not, label %.preheader.preheader, label %13, !llvm.loop !36

.preheader.preheader:                             ; preds = %13, %1
  br label %.preheader

.preheader:                                       ; preds = %.preheader.preheader, %.preheader
  %indvars.iv28 = phi i64 [ %indvars.iv.next29, %.preheader ], [ 0, %.preheader.preheader ]
  %.02124 = phi i32 [ %26, %.preheader ], [ 0, %.preheader.preheader ]
  %24 = getelementptr inbounds nuw [4 x i32], ptr %2, i64 0, i64 %indvars.iv28
  %25 = load i32, ptr %24, align 4, !tbaa !4
  %26 = add nsw i32 %25, %.02124
  %indvars.iv.next29 = add nuw nsw i64 %indvars.iv28, 1
  %exitcond31.not = icmp eq i64 %indvars.iv.next29, 4
  br i1 %exitcond31.not, label %27, label %.preheader, !llvm.loop !37

27:                                               ; preds = %.preheader
  %28 = getelementptr inbounds nuw i8, ptr %0, i64 16
  %29 = load i64, ptr %28, align 8, !tbaa !8
  %30 = and i64 %29, 4
  %.not = icmp eq i64 %30, 0
  %31 = shl nsw i32 %26, 3
  %spec.select = select i1 %.not, i32 %31, i32 %26
  %32 = ashr i32 %spec.select, %9
  call void @llvm.lifetime.end.p0(i64 16, ptr nonnull %2) #15
  ret i32 %32
}